; Function Attrs: mustprogress nounwind uwtable
define internal fastcc void @_ZN12_GLOBAL__N_111StmtPrinter25VisitOMPCriticalDirectiveEPN5clang20OMPCriticalDirectiveE(ptr noundef nonnull align 8 dereferenceable(80) %0, ptr noundef readonly captures(none) %1) unnamed_addr #0 align 2 {
  %3 = alloca %"struct.clang::DeclarationNameInfo", align 8
  %4 = getelementptr inbounds nuw i8, ptr %0, i64 8
  %5 = load i32, ptr %4, align 8
  %6 = icmp sgt i32 %5, 0
  br i1 %6, label %.lr.ph.i, label %_ZN12_GLOBAL__N_111StmtPrinter6IndentEi.exit

.lr.ph.i:                                         ; preds = %2, %_ZN4llvm11raw_ostreamlsEPKc.exit.i
  %.04.i = phi i32 [ %21, %_ZN4llvm11raw_ostreamlsEPKc.exit.i ], [ 0, %2 ]
  %7 = load ptr, ptr %0, align 8
  %8 = getelementptr inbounds nuw i8, ptr %7, i64 24
  %9 = load ptr, ptr %8, align 8
  %10 = getelementptr inbounds nuw i8, ptr %7, i64 32
  %11 = load ptr, ptr %10, align 8
  %12 = ptrtoint ptr %9 to i64
  %13 = ptrtoint ptr %11 to i64
  %14 = sub i64 %12, %13
  %15 = icmp ult i64 %14, 2
  br i1 %15, label %16, label %18

16:                                               ; preds = %.lr.ph.i
  %17 = tail call noundef nonnull align 8 dereferenceable(48) ptr @_ZN4llvm11raw_ostream5writeEPKcm(ptr noundef nonnull align 8 dereferenceable(48) %7, ptr noundef nonnull @.str.3, i64 noundef 2) #19
  br label %_ZN4llvm11raw_ostreamlsEPKc.exit.i

18:                                               ; preds = %.lr.ph.i
  store i16 8224, ptr %11, align 1
  %19 = load ptr, ptr %10, align 8
  %20 = getelementptr inbounds nuw i8, ptr %19, i64 2
  store ptr %20, ptr %10, align 8
  br label %_ZN4llvm11raw_ostreamlsEPKc.exit.i

_ZN4llvm11raw_ostreamlsEPKc.exit.i:               ; preds = %18, %16
  %21 = add nuw nsw i32 %.04.i, 1
  %exitcond.not.i = icmp eq i32 %21, %5
  br i1 %exitcond.not.i, label %_ZN12_GLOBAL__N_111StmtPrinter6IndentEi.exit, label %.lr.ph.i, !llvm.loop !16

_ZN12_GLOBAL__N_111StmtPrinter6IndentEi.exit:     ; preds = %_ZN4llvm11raw_ostreamlsEPKc.exit.i, %2
  %22 = load ptr, ptr %0, align 8
  %23 = getelementptr inbounds nuw i8, ptr %22, i64 24
  %24 = load ptr, ptr %23, align 8
  %25 = getelementptr inbounds nuw i8, ptr %22, i64 32
  %26 = load ptr, ptr %25, align 8
  %27 = ptrtoint ptr %24 to i64
  %28 = ptrtoint ptr %26 to i64
  %29 = sub i64 %27, %28
  %30 = icmp ult i64 %29, 20
  br i1 %30, label %31, label %33

31:                                               ; preds = %_ZN12_GLOBAL__N_111StmtPrinter6IndentEi.exit
  %32 = tail call noundef nonnull align 8 dereferenceable(48) ptr @_ZN4llvm11raw_ostream5writeEPKcm(ptr noundef nonnull align 8 dereferenceable(48) %22, ptr noundef nonnull @.str.339, i64 noundef 20) #19
  br label %_ZN4llvm11raw_ostreamlsEPKc.exit

33:                                               ; preds = %_ZN12_GLOBAL__N_111StmtPrinter6IndentEi.exit
  tail call void @llvm.memcpy.p0.p0.i64(ptr noundef nonnull align 1 dereferenceable(20) %26, ptr noundef nonnull align 1 dereferenceable(20) @.str.339, i64 20, i1 false)
  %34 = load ptr, ptr %25, align 8
  %35 = getelementptr inbounds nuw i8, ptr %34, i64 20
  store ptr %35, ptr %25, align 8
  br label %_ZN4llvm11raw_ostreamlsEPKc.exit

_ZN4llvm11raw_ostreamlsEPKc.exit:                 ; preds = %31, %33
  %36 = getelementptr inbounds nuw i8, ptr %1, i64 32
  %.sroa.0.0.copyload10 = load i64, ptr %36, align 8
  %.not = icmp eq i64 %.sroa.0.0.copyload10, 0
  br i1 %.not, label %_ZN4llvm11raw_ostreamlsEPKc.exit9, label %37

37:                                               ; preds = %_ZN4llvm11raw_ostreamlsEPKc.exit
  %38 = load ptr, ptr %0, align 8
  %39 = getelementptr inbounds nuw i8, ptr %38, i64 24
  %40 = load ptr, ptr %39, align 8
  %41 = getelementptr inbounds nuw i8, ptr %38, i64 32
  %42 = load ptr, ptr %41, align 8
  %43 = ptrtoint ptr %40 to i64
  %44 = ptrtoint ptr %42 to i64
  %45 = sub i64 %43, %44
  %46 = icmp ult i64 %45, 2
  br i1 %46, label %47, label %49

47:                                               ; preds = %37
  %48 = tail call noundef nonnull align 8 dereferenceable(48) ptr @_ZN4llvm11raw_ostream5writeEPKcm(ptr noundef nonnull align 8 dereferenceable(48) %38, ptr noundef nonnull @.str.340, i64 noundef 2) #19
  br label %_ZN4llvm11raw_ostreamlsEPKc.exit6

49:                                               ; preds = %37
  store i16 10272, ptr %42, align 1
  %50 = load ptr, ptr %41, align 8
  %51 = getelementptr inbounds nuw i8, ptr %50, i64 2
  store ptr %51, ptr %41, align 8
  br label %_ZN4llvm11raw_ostreamlsEPKc.exit6

_ZN4llvm11raw_ostreamlsEPKc.exit6:                ; preds = %47, %49
  call void @llvm.memcpy.p0.p0.i64(ptr noundef nonnull align 8 dereferenceable(24) %3, ptr noundef nonnull align 8 dereferenceable(24) %36, i64 24, i1 false)
  %52 = load ptr, ptr %0, align 8
  %53 = getelementptr inbounds nuw i8, ptr %0, i64 24
  %.sroa.0.0.copyload = load i64, ptr %53, align 8
  %.sroa.2.0..sroa_idx = getelementptr inbounds nuw i8, ptr %0, i64 32
  %.sroa.2.0.copyload = load ptr, ptr %.sroa.2.0..sroa_idx, align 8
  call void @_ZNK5clang19DeclarationNameInfo9printNameERN4llvm11raw_ostreamENS_14PrintingPolicyE(ptr noundef nonnull align 8 dereferenceable(24) %3, ptr noundef nonnull align 8 dereferenceable(48) %52, i64 %.sroa.0.0.copyload, ptr %.sroa.2.0.copyload) #19
  %54 = load ptr, ptr %0, align 8
  %55 = getelementptr inbounds nuw i8, ptr %54, i64 24
  %56 = load ptr, ptr %55, align 8
  %57 = getelementptr inbounds nuw i8, ptr %54, i64 32
  %58 = load ptr, ptr %57, align 8
  %59 = icmp eq ptr %56, %58
  br i1 %59, label %60, label %62

60:                                               ; preds = %_ZN4llvm11raw_ostreamlsEPKc.exit6
  %61 = call noundef nonnull align 8 dereferenceable(48) ptr @_ZN4llvm11raw_ostream5writeEPKcm(ptr noundef nonnull align 8 dereferenceable(48) %54, ptr noundef nonnull @.str.2, i64 noundef 1) #19
  br label %_ZN4llvm11raw_ostreamlsEPKc.exit9

62:                                               ; preds = %_ZN4llvm11raw_ostreamlsEPKc.exit6
  store i8 41, ptr %58, align 1
  %63 = load ptr, ptr %57, align 8
  %64 = getelementptr inbounds nuw i8, ptr %63, i64 1
  store ptr %64, ptr %57, align 8
  br label %_ZN4llvm11raw_ostreamlsEPKc.exit9

_ZN4llvm11raw_ostreamlsEPKc.exit9:                ; preds = %62, %60, %_ZN4llvm11raw_ostreamlsEPKc.exit
  call fastcc void @_ZN12_GLOBAL__N_111StmtPrinter27PrintOMPExecutableDirectiveEPN5clang22OMPExecutableDirectiveEb(ptr noundef nonnull align 8 dereferenceable(80) %0, ptr noundef nonnull %1, i1 noundef zeroext false)
  ret void
}